ccopy_reg
_reconstructor
p0
(cgoogle.oauth2.credentials
Credentials
p1
c__builtin__
object
p2
Ntp3
Rp4
(dp5
S'_token_uri'
p6
Vhttps://oauth2.googleapis.com/token
p7
sS'_client_secret'
p8
V6vgSjpbeZnNbHs0SR1SpM9ZD
p9
sS'_id_token'
p10
NsS'token'
p11
Vya29.GlvABnUfL1Jukcv8Gg1QZzQnezUkCVUvTboaH4QiwLtLNOvcKOSk7KOjqe2-SxrYDjBID4rG35Fh00P8tpNztBxVK1Zjyz02e13s5nDDdBcRbQ8owSxYKCDlRTdN
p12
sS'_refresh_token'
p13
V1/Ed8msEazBrJzd7rahXxsWTfZL4uLV2V1HVfvIhy8dVI
p14
sS'_scopes'
p15
(lp16
S'https://www.googleapis.com/auth/drive.metadata.readonly'
p17
asS'_client_id'
p18
V87865301976-lpiefjtd1mp71kid20aehekgocjs0oqr.apps.googleusercontent.com
p19
sS'expiry'
p20
cdatetime
datetime
p21
(S'\x07\xe3\x03\x01\x17\n\x03\x01O\xf0'
p22
tp23
Rp24
sb.